target datalayout = "e-m:e-p270:32:32-p271:32:32-p272:64:64-i64:64-i128:128-f80:128-n8:16:32:64-S128"
target triple = "x86_64-pc-linux-gnu"

%struct.evp_keymgmt_st = type { i32, i32, i32, ptr, ptr, ptr, %struct.CRYPTO_REF_COUNT, ptr, ptr, ptr, ptr, ptr, ptr, ptr, ptr, ptr, ptr, ptr, ptr, ptr, ptr, ptr, ptr, ptr, ptr, ptr, ptr, ptr, ptr, ptr, ptr, ptr, ptr }
%struct.CRYPTO_REF_COUNT = type { i32 }

; Function Attrs: nounwind uwtable
define ptr @EVP_KEYMGMT_get0_provider(ptr noundef %0) #0 {
  %2 = alloca ptr, align 8
  store ptr %0, ptr %2, align 8, !tbaa !18
  %3 = load ptr, ptr %2, align 8, !tbaa !18
  %4 = getelementptr inbounds nuw %struct.evp_keymgmt_st, ptr %3, i32 0, i32 5
  %5 = load ptr, ptr %4, align 8, !tbaa !56
  ret ptr %5
}

; Function Attrs: nounwind uwtable
define ptr @evp_keymgmt_export_types(ptr noundef %0, i32 noundef %1) #0 {
  %3 = alloca ptr, align 8
  %4 = alloca ptr, align 8
  %5 = alloca i32, align 4
  %6 = alloca ptr, align 8
  %7 = alloca i32, align 4
  store ptr %0, ptr %4, align 8, !tbaa !18
  store i32 %1, ptr %5, align 4, !tbaa !10
  call void @llvm.lifetime.start.p0(i64 8, ptr %6) #4
  %8 = load ptr, ptr %4, align 8, !tbaa !18
  %9 = call ptr @EVP_KEYMGMT_get0_provider(ptr noundef %8)
  %10 = call ptr @ossl_provider_ctx(ptr noundef %9)
  store ptr %10, ptr %6, align 8, !tbaa !58
  %11 = load ptr, ptr %4, align 8, !tbaa !18
  %12 = getelementptr inbounds nuw %struct.evp_keymgmt_st, ptr %11, i32 0, i32 31
  %13 = load ptr, ptr %12, align 8, !tbaa !53
  %14 = icmp ne ptr %13, null
  br i1 %14, label %15, label %22

15:                                               ; preds = %2
  %16 = load ptr, ptr %4, align 8, !tbaa !18
  %17 = getelementptr inbounds nuw %struct.evp_keymgmt_st, ptr %16, i32 0, i32 31
  %18 = load ptr, ptr %17, align 8, !tbaa !53
  %19 = load ptr, ptr %6, align 8, !tbaa !58
  %20 = load i32, ptr %5, align 4, !tbaa !10
  %21 = call ptr %18(ptr noundef %19, i32 noundef %20)
  store ptr %21, ptr %3, align 8
  store i32 1, ptr %7, align 4
  br label %34

22:                                               ; preds = %2
  %23 = load ptr, ptr %4, align 8, !tbaa !18
  %24 = getelementptr inbounds nuw %struct.evp_keymgmt_st, ptr %23, i32 0, i32 30
  %25 = load ptr, ptr %24, align 8, !tbaa !52
  %26 = icmp eq ptr %25, null
  br i1 %26, label %27, label %28

27:                                               ; preds = %22
  store ptr null, ptr %3, align 8
  store i32 1, ptr %7, align 4
  br label %34

28:                                               ; preds = %22
  %29 = load ptr, ptr %4, align 8, !tbaa !18
  %30 = getelementptr inbounds nuw %struct.evp_keymgmt_st, ptr %29, i32 0, i32 30
  %31 = load ptr, ptr %30, align 8, !tbaa !52
  %32 = load i32, ptr %5, align 4, !tbaa !10
  %33 = call ptr %31(i32 noundef %32)
  store ptr %33, ptr %3, align 8
  store i32 1, ptr %7, align 4
  br label %34

34:                                               ; preds = %28, %27, %15
  call void @llvm.lifetime.end.p0(i64 8, ptr %6) #4
  %35 = load ptr, ptr %3, align 8
  ret ptr %35
}